; Function Attrs: nofree nounwind uwtable
define range(i32 0, 2) i32 @Wln_ConvertToRtl(ptr noundef %0, ptr noundef %1) local_unnamed_addr #7 {
  %3 = tail call i32 @system(ptr noundef %0) #13
  %4 = icmp eq i32 %3, -1
  br i1 %4, label %5, label %8

5:                                                ; preds = %2
  %6 = load ptr, ptr @stdout, align 8, !tbaa !6
  %7 = tail call i32 (ptr, ptr, ...) @fprintf(ptr noundef %6, ptr noundef nonnull @.str.12, ptr noundef %0) #13
  br label %16

8:                                                ; preds = %2
  %9 = tail call noalias ptr @fopen(ptr noundef %1, ptr noundef nonnull @.str.13)
  %10 = icmp eq ptr %9, null
  br i1 %10, label %11, label %14

11:                                               ; preds = %8
  %12 = load ptr, ptr @stdout, align 8, !tbaa !6
  %13 = tail call i32 (ptr, ptr, ...) @fprintf(ptr noundef %12, ptr noundef nonnull @.str.14, ptr noundef %1) #13
  br label %16

14:                                               ; preds = %8
  %15 = tail call i32 @fclose(ptr noundef nonnull %9)
  br label %16

16:                                               ; preds = %14, %11, %5
  %.0 = phi i32 [ 0, %5 ], [ 0, %11 ], [ 1, %14 ]
  ret i32 %.0
}